target datalayout = "e-m:e-p270:32:32-p271:32:32-p272:64:64-i64:64-i128:128-f80:128-n8:16:32:64-S128"
target triple = "x86_64-pc-linux-gnu"

%struct._pdo_stmt_t = type { ptr, ptr, [6 x i8], i16, ptr, ptr, ptr, ptr, i32, i32, %union.anon, ptr, ptr, ptr, i64, ptr, ptr, ptr, %struct._zend_object }
%union.anon = type { %struct.anon.0 }
%struct.anon.0 = type { %struct._zend_fcall_info_cache }
%struct._zend_fcall_info_cache = type { ptr, ptr, ptr, ptr, ptr }
%struct._zend_object = type { %struct._zend_refcounted_h, i32, i32, ptr, ptr, ptr, [1 x %struct._zval_struct] }
%struct._zend_refcounted_h = type { i32, %union.anon.1 }
%union.anon.1 = type { i32 }
%struct._zval_struct = type { %union._zend_value, %union.anon.3, %union.anon.6 }
%union._zend_value = type { i64 }
%union.anon.3 = type { i32 }
%union.anon.6 = type { i32 }
%struct.pdo_sqlite_stmt = type { ptr, ptr, i8 }

@.str = private unnamed_addr constant [114 x i8] c"/home/dtcxzyw/WorkSpace/Projects/compilers/llvm-opt-benchmark/bench/php/php-src/ext/pdo_sqlite/sqlite_statement.c\00", align 1

; Function Attrs: nounwind uwtable
define internal i32 @pdo_sqlite_stmt_fetch(ptr noundef %0, i32 noundef %1, i64 noundef %2) #0 {
  %4 = alloca i32, align 4
  %5 = alloca ptr, align 8
  %6 = alloca i32, align 4
  %7 = alloca i64, align 8
  %8 = alloca ptr, align 8
  %9 = alloca i32, align 4
  %10 = alloca i32, align 4
  store ptr %0, ptr %5, align 8, !tbaa !4
  store i32 %1, ptr %6, align 4, !tbaa !38
  store i64 %2, ptr %7, align 8, !tbaa !39
  call void @llvm.lifetime.start.p0(i64 8, ptr %8) #8
  %11 = load ptr, ptr %5, align 8, !tbaa !4
  %12 = getelementptr inbounds nuw %struct._pdo_stmt_t, ptr %11, i32 0, i32 1
  %13 = load ptr, ptr %12, align 8, !tbaa !9
  store ptr %13, ptr %8, align 8, !tbaa !25
  call void @llvm.lifetime.start.p0(i64 4, ptr %9) #8
  %14 = load ptr, ptr %8, align 8, !tbaa !25
  %15 = getelementptr inbounds nuw %struct.pdo_sqlite_stmt, ptr %14, i32 0, i32 1
  %16 = load ptr, ptr %15, align 8, !tbaa !26
  %17 = icmp ne ptr %16, null
  br i1 %17, label %19, label %18

18:                                               ; preds = %3
  store i32 0, ptr %4, align 4
  store i32 1, ptr %10, align 4
  br label %69

19:                                               ; preds = %3
  %20 = load ptr, ptr %8, align 8, !tbaa !25
  %21 = getelementptr inbounds nuw %struct.pdo_sqlite_stmt, ptr %20, i32 0, i32 2
  %22 = load i8, ptr %21, align 8
  %23 = and i8 %22, 1
  %24 = zext i8 %23 to i32
  %25 = icmp ne i32 %24, 0
  br i1 %25, label %26, label %32

26:                                               ; preds = %19
  %27 = load ptr, ptr %8, align 8, !tbaa !25
  %28 = getelementptr inbounds nuw %struct.pdo_sqlite_stmt, ptr %27, i32 0, i32 2
  %29 = load i8, ptr %28, align 8
  %30 = and i8 %29, -2
  %31 = or i8 %30, 0
  store i8 %31, ptr %28, align 8
  store i32 1, ptr %4, align 4
  store i32 1, ptr %10, align 4
  br label %69

32:                                               ; preds = %19
  %33 = load ptr, ptr %8, align 8, !tbaa !25
  %34 = getelementptr inbounds nuw %struct.pdo_sqlite_stmt, ptr %33, i32 0, i32 2
  %35 = load i8, ptr %34, align 8
  %36 = lshr i8 %35, 1
  %37 = and i8 %36, 1
  %38 = zext i8 %37 to i32
  %39 = icmp ne i32 %38, 0
  br i1 %39, label %40, label %41

40:                                               ; preds = %32
  store i32 0, ptr %4, align 4
  store i32 1, ptr %10, align 4
  br label %69

41:                                               ; preds = %32
  %42 = load ptr, ptr %8, align 8, !tbaa !25
  %43 = getelementptr inbounds nuw %struct.pdo_sqlite_stmt, ptr %42, i32 0, i32 1
  %44 = load ptr, ptr %43, align 8, !tbaa !26
  %45 = call i32 @sqlite3_step(ptr noundef %44)
  store i32 %45, ptr %9, align 4, !tbaa !38
  %46 = load i32, ptr %9, align 4, !tbaa !38
  switch i32 %46, label %63 [
    i32 100, label %47
    i32 101, label %48
    i32 1, label %58
  ]

47:                                               ; preds = %41
  store i32 1, ptr %4, align 4
  store i32 1, ptr %10, align 4
  br label %69

48:                                               ; preds = %41
  %49 = load ptr, ptr %8, align 8, !tbaa !25
  %50 = getelementptr inbounds nuw %struct.pdo_sqlite_stmt, ptr %49, i32 0, i32 2
  %51 = load i8, ptr %50, align 8
  %52 = and i8 %51, -3
  %53 = or i8 %52, 2
  store i8 %53, ptr %50, align 8
  %54 = load ptr, ptr %8, align 8, !tbaa !25
  %55 = getelementptr inbounds nuw %struct.pdo_sqlite_stmt, ptr %54, i32 0, i32 1
  %56 = load ptr, ptr %55, align 8, !tbaa !26
  %57 = call i32 @sqlite3_reset(ptr noundef %56)
  store i32 0, ptr %4, align 4
  store i32 1, ptr %10, align 4
  br label %69

58:                                               ; preds = %41
  %59 = load ptr, ptr %8, align 8, !tbaa !25
  %60 = getelementptr inbounds nuw %struct.pdo_sqlite_stmt, ptr %59, i32 0, i32 1
  %61 = load ptr, ptr %60, align 8, !tbaa !26
  %62 = call i32 @sqlite3_reset(ptr noundef %61)
  br label %63

63:                                               ; preds = %41, %58
  %64 = load ptr, ptr %5, align 8, !tbaa !4
  %65 = getelementptr inbounds nuw %struct._pdo_stmt_t, ptr %64, i32 0, i32 12
  %66 = load ptr, ptr %65, align 8, !tbaa !37
  %67 = load ptr, ptr %5, align 8, !tbaa !4
  %68 = call i32 @_pdo_sqlite_error(ptr noundef %66, ptr noundef %67, ptr noundef @.str, i32 noundef 231)
  store i32 0, ptr %4, align 4
  store i32 1, ptr %10, align 4
  br label %69

69:                                               ; preds = %63, %48, %47, %40, %26, %18
  call void @llvm.lifetime.end.p0(i64 4, ptr %9) #8
  call void @llvm.lifetime.end.p0(i64 8, ptr %8) #8
  %70 = load i32, ptr %4, align 4
  ret i32 %70
}