; Function Attrs: nounwind uwtable
define internal range(i32 0, 2) i32 @pdo_sqlite_stmt_fetch(ptr noundef %0, i32 %1, i64 %2) #0 {
  %4 = getelementptr inbounds nuw i8, ptr %0, i64 8
  %5 = load ptr, ptr %4, align 8, !tbaa !4
  %6 = getelementptr inbounds nuw i8, ptr %5, i64 8
  %7 = load ptr, ptr %6, align 8, !tbaa !23
  %.not = icmp eq ptr %7, null
  br i1 %.not, label %30, label %8

8:                                                ; preds = %3
  %9 = getelementptr inbounds nuw i8, ptr %5, i64 16
  %10 = load i8, ptr %9, align 8
  %11 = and i8 %10, 1
  %.not13 = icmp eq i8 %11, 0
  br i1 %.not13, label %14, label %12

12:                                               ; preds = %8
  %13 = and i8 %10, -2
  store i8 %13, ptr %9, align 8
  br label %30

14:                                               ; preds = %8
  %15 = and i8 %10, 2
  %.not14 = icmp eq i8 %15, 0
  br i1 %.not14, label %16, label %30

16:                                               ; preds = %14
  %17 = tail call i32 @sqlite3_step(ptr noundef nonnull %7) #6
  switch i32 %17, label %26 [
    i32 100, label %30
    i32 101, label %18
    i32 1, label %23
  ]

18:                                               ; preds = %16
  %19 = load i8, ptr %9, align 8
  %20 = or i8 %19, 2
  store i8 %20, ptr %9, align 8
  %21 = load ptr, ptr %6, align 8, !tbaa !23
  %22 = tail call i32 @sqlite3_reset(ptr noundef %21) #6
  br label %30

23:                                               ; preds = %16
  %24 = load ptr, ptr %6, align 8, !tbaa !23
  %25 = tail call i32 @sqlite3_reset(ptr noundef %24) #6
  br label %26

26:                                               ; preds = %23, %16
  %27 = getelementptr inbounds nuw i8, ptr %0, i64 112
  %28 = load ptr, ptr %27, align 8, !tbaa !34
  %29 = tail call i32 @_pdo_sqlite_error(ptr noundef %28, ptr noundef nonnull %0, ptr noundef nonnull @.str, i32 noundef 231) #6
  br label %30

30:                                               ; preds = %16, %14, %3, %26, %18, %12
  %.0 = phi i32 [ 1, %12 ], [ 0, %26 ], [ 0, %18 ], [ 0, %3 ], [ 0, %14 ], [ 1, %16 ]
  ret i32 %.0
}